
SoilMoistureSensorInterfacing.elf:     file format elf32-avr

Sections:
Idx Name          Size      VMA       LMA       File off  Algn
  0 .data         0000002a  00800200  00000604  00000698  2**0
                  CONTENTS, ALLOC, LOAD, DATA
  1 .text         00000604  00000000  00000000  00000094  2**1
                  CONTENTS, ALLOC, LOAD, READONLY, CODE
  2 .bss          0000000c  0080022a  0080022a  000006c2  2**0
                  ALLOC
  3 .comment      00000030  00000000  00000000  000006c2  2**0
                  CONTENTS, READONLY
  4 .note.gnu.avr.deviceinfo 00000040  00000000  00000000  000006f4  2**2
                  CONTENTS, READONLY
  5 .debug_info   00000bbc  00000000  00000000  00000734  2**0
                  CONTENTS, READONLY, DEBUGGING
  6 .debug_abbrev 00000b1a  00000000  00000000  000012f0  2**0
                  CONTENTS, READONLY, DEBUGGING
  7 .debug_line   000001f9  00000000  00000000  00001e0a  2**0
                  CONTENTS, READONLY, DEBUGGING
  8 .debug_str    000003e6  00000000  00000000  00002003  2**0
                  CONTENTS, READONLY, DEBUGGING

Disassembly of section .text:

00000000 <__vectors>:
   0:	0c 94 72 00 	jmp	0xe4	; 0xe4 <__ctors_end>
   4:	0c 94 93 00 	jmp	0x126	; 0x126 <__bad_interrupt>
   8:	0c 94 93 00 	jmp	0x126	; 0x126 <__bad_interrupt>
   c:	0c 94 93 00 	jmp	0x126	; 0x126 <__bad_interrupt>
  10:	0c 94 93 00 	jmp	0x126	; 0x126 <__bad_interrupt>
  14:	0c 94 93 00 	jmp	0x126	; 0x126 <__bad_interrupt>
  18:	0c 94 93 00 	jmp	0x126	; 0x126 <__bad_interrupt>
  1c:	0c 94 93 00 	jmp	0x126	; 0x126 <__bad_interrupt>
  20:	0c 94 93 00 	jmp	0x126	; 0x126 <__bad_interrupt>
  24:	0c 94 93 00 	jmp	0x126	; 0x126 <__bad_interrupt>
  28:	0c 94 93 00 	jmp	0x126	; 0x126 <__bad_interrupt>
  2c:	0c 94 93 00 	jmp	0x126	; 0x126 <__bad_interrupt>
  30:	0c 94 93 00 	jmp	0x126	; 0x126 <__bad_interrupt>
  34:	0c 94 93 00 	jmp	0x126	; 0x126 <__bad_interrupt>
  38:	0c 94 93 00 	jmp	0x126	; 0x126 <__bad_interrupt>
  3c:	0c 94 93 00 	jmp	0x126	; 0x126 <__bad_interrupt>
  40:	0c 94 93 00 	jmp	0x126	; 0x126 <__bad_interrupt>
  44:	0c 94 93 00 	jmp	0x126	; 0x126 <__bad_interrupt>
  48:	0c 94 93 00 	jmp	0x126	; 0x126 <__bad_interrupt>
  4c:	0c 94 93 00 	jmp	0x126	; 0x126 <__bad_interrupt>
  50:	0c 94 93 00 	jmp	0x126	; 0x126 <__bad_interrupt>
  54:	0c 94 93 00 	jmp	0x126	; 0x126 <__bad_interrupt>
  58:	0c 94 93 00 	jmp	0x126	; 0x126 <__bad_interrupt>
  5c:	0c 94 93 00 	jmp	0x126	; 0x126 <__bad_interrupt>
  60:	0c 94 93 00 	jmp	0x126	; 0x126 <__bad_interrupt>
  64:	0c 94 93 00 	jmp	0x126	; 0x126 <__bad_interrupt>
  68:	0c 94 93 00 	jmp	0x126	; 0x126 <__bad_interrupt>
  6c:	0c 94 93 00 	jmp	0x126	; 0x126 <__bad_interrupt>
  70:	0c 94 93 00 	jmp	0x126	; 0x126 <__bad_interrupt>
  74:	0c 94 93 00 	jmp	0x126	; 0x126 <__bad_interrupt>
  78:	0c 94 93 00 	jmp	0x126	; 0x126 <__bad_interrupt>
  7c:	0c 94 93 00 	jmp	0x126	; 0x126 <__bad_interrupt>
  80:	0c 94 93 00 	jmp	0x126	; 0x126 <__bad_interrupt>
  84:	0c 94 93 00 	jmp	0x126	; 0x126 <__bad_interrupt>
  88:	0c 94 93 00 	jmp	0x126	; 0x126 <__bad_interrupt>
  8c:	0c 94 93 00 	jmp	0x126	; 0x126 <__bad_interrupt>
  90:	0c 94 93 00 	jmp	0x126	; 0x126 <__bad_interrupt>
  94:	0c 94 93 00 	jmp	0x126	; 0x126 <__bad_interrupt>
  98:	0c 94 93 00 	jmp	0x126	; 0x126 <__bad_interrupt>
  9c:	0c 94 93 00 	jmp	0x126	; 0x126 <__bad_interrupt>
  a0:	0c 94 93 00 	jmp	0x126	; 0x126 <__bad_interrupt>
  a4:	0c 94 93 00 	jmp	0x126	; 0x126 <__bad_interrupt>
  a8:	0c 94 93 00 	jmp	0x126	; 0x126 <__bad_interrupt>
  ac:	0c 94 93 00 	jmp	0x126	; 0x126 <__bad_interrupt>
  b0:	0c 94 93 00 	jmp	0x126	; 0x126 <__bad_interrupt>
  b4:	0c 94 93 00 	jmp	0x126	; 0x126 <__bad_interrupt>
  b8:	0c 94 93 00 	jmp	0x126	; 0x126 <__bad_interrupt>
  bc:	0c 94 93 00 	jmp	0x126	; 0x126 <__bad_interrupt>
  c0:	0c 94 93 00 	jmp	0x126	; 0x126 <__bad_interrupt>
  c4:	0c 94 93 00 	jmp	0x126	; 0x126 <__bad_interrupt>
  c8:	0c 94 93 00 	jmp	0x126	; 0x126 <__bad_interrupt>
  cc:	0c 94 93 00 	jmp	0x126	; 0x126 <__bad_interrupt>
  d0:	0c 94 93 00 	jmp	0x126	; 0x126 <__bad_interrupt>
  d4:	0c 94 93 00 	jmp	0x126	; 0x126 <__bad_interrupt>
  d8:	0c 94 93 00 	jmp	0x126	; 0x126 <__bad_interrupt>
  dc:	0c 94 93 00 	jmp	0x126	; 0x126 <__bad_interrupt>
  e0:	0c 94 93 00 	jmp	0x126	; 0x126 <__bad_interrupt>

000000e4 <__ctors_end>:
  e4:	11 24       	eor	r1, r1
  e6:	1f be       	out	0x3f, r1	; 63
  e8:	cf ef       	ldi	r28, 0xFF	; 255
  ea:	d1 e2       	ldi	r29, 0x21	; 33
  ec:	de bf       	out	0x3e, r29	; 62
  ee:	cd bf       	out	0x3d, r28	; 61
  f0:	00 e0       	ldi	r16, 0x00	; 0
  f2:	0c bf       	out	0x3c, r16	; 60

000000f4 <__do_copy_data>:
  f4:	12 e0       	ldi	r17, 0x02	; 2
  f6:	a0 e0       	ldi	r26, 0x00	; 0
  f8:	b2 e0       	ldi	r27, 0x02	; 2
  fa:	e4 e0       	ldi	r30, 0x04	; 4
  fc:	f6 e0       	ldi	r31, 0x06	; 6
  fe:	00 e0       	ldi	r16, 0x00	; 0
 100:	0b bf       	out	0x3b, r16	; 59
 102:	02 c0       	rjmp	.+4      	; 0x108 <__do_copy_data+0x14>
 104:	07 90       	elpm	r0, Z+
 106:	0d 92       	st	X+, r0
 108:	aa 32       	cpi	r26, 0x2A	; 42
 10a:	b1 07       	cpc	r27, r17
 10c:	d9 f7       	brne	.-10     	; 0x104 <__do_copy_data+0x10>

0000010e <__do_clear_bss>:
 10e:	22 e0       	ldi	r18, 0x02	; 2
 110:	aa e2       	ldi	r26, 0x2A	; 42
 112:	b2 e0       	ldi	r27, 0x02	; 2
 114:	01 c0       	rjmp	.+2      	; 0x118 <.do_clear_bss_start>

00000116 <.do_clear_bss_loop>:
 116:	1d 92       	st	X+, r1

00000118 <.do_clear_bss_start>:
 118:	a6 33       	cpi	r26, 0x36	; 54
 11a:	b2 07       	cpc	r27, r18
 11c:	e1 f7       	brne	.-8      	; 0x116 <.do_clear_bss_loop>
 11e:	0e 94 4a 02 	call	0x494	; 0x494 <main>
 122:	0c 94 00 03 	jmp	0x600	; 0x600 <_exit>

00000126 <__bad_interrupt>:
 126:	0c 94 00 00 	jmp	0	; 0x0 <__vectors>

0000012a <lcd_port_config>:
 12a:	87 b1       	in	r24, 0x07	; 7
 12c:	87 6f       	ori	r24, 0xF7	; 247
 12e:	87 b9       	out	0x07, r24	; 7
 130:	88 b1       	in	r24, 0x08	; 8
 132:	88 70       	andi	r24, 0x08	; 8
 134:	88 b9       	out	0x08, r24	; 8
 136:	08 95       	ret

00000138 <lcd_reset>:
 138:	86 e6       	ldi	r24, 0x66	; 102
 13a:	9e e0       	ldi	r25, 0x0E	; 14
 13c:	01 97       	sbiw	r24, 0x01	; 1
 13e:	f1 f7       	brne	.-4      	; 0x13c <lcd_reset+0x4>
 140:	00 00       	nop
 142:	40 98       	cbi	0x08, 0	; 8
 144:	41 98       	cbi	0x08, 1	; 8
 146:	80 e3       	ldi	r24, 0x30	; 48
 148:	88 b9       	out	0x08, r24	; 8
 14a:	42 9a       	sbi	0x08, 2	; 8
 14c:	ef ef       	ldi	r30, 0xFF	; 255
 14e:	f7 e4       	ldi	r31, 0x47	; 71
 150:	31 97       	sbiw	r30, 0x01	; 1
 152:	f1 f7       	brne	.-4      	; 0x150 <lcd_reset+0x18>
 154:	00 c0       	rjmp	.+0      	; 0x156 <lcd_reset+0x1e>
 156:	00 00       	nop
 158:	42 98       	cbi	0x08, 2	; 8
 15a:	e6 e6       	ldi	r30, 0x66	; 102
 15c:	fe e0       	ldi	r31, 0x0E	; 14
 15e:	31 97       	sbiw	r30, 0x01	; 1
 160:	f1 f7       	brne	.-4      	; 0x15e <lcd_reset+0x26>
 162:	00 00       	nop
 164:	40 98       	cbi	0x08, 0	; 8
 166:	41 98       	cbi	0x08, 1	; 8
 168:	88 b9       	out	0x08, r24	; 8
 16a:	42 9a       	sbi	0x08, 2	; 8
 16c:	ef ef       	ldi	r30, 0xFF	; 255
 16e:	f7 e4       	ldi	r31, 0x47	; 71
 170:	31 97       	sbiw	r30, 0x01	; 1
 172:	f1 f7       	brne	.-4      	; 0x170 <lcd_reset+0x38>
 174:	00 c0       	rjmp	.+0      	; 0x176 <lcd_reset+0x3e>
 176:	00 00       	nop
 178:	42 98       	cbi	0x08, 2	; 8
 17a:	e6 e6       	ldi	r30, 0x66	; 102
 17c:	fe e0       	ldi	r31, 0x0E	; 14
 17e:	31 97       	sbiw	r30, 0x01	; 1
 180:	f1 f7       	brne	.-4      	; 0x17e <lcd_reset+0x46>
 182:	00 00       	nop
 184:	40 98       	cbi	0x08, 0	; 8
 186:	41 98       	cbi	0x08, 1	; 8
 188:	88 b9       	out	0x08, r24	; 8
 18a:	42 9a       	sbi	0x08, 2	; 8
 18c:	8f ef       	ldi	r24, 0xFF	; 255
 18e:	97 e4       	ldi	r25, 0x47	; 71
 190:	01 97       	sbiw	r24, 0x01	; 1
 192:	f1 f7       	brne	.-4      	; 0x190 <lcd_reset+0x58>
 194:	00 c0       	rjmp	.+0      	; 0x196 <lcd_reset+0x5e>
 196:	00 00       	nop
 198:	42 98       	cbi	0x08, 2	; 8
 19a:	e6 e6       	ldi	r30, 0x66	; 102
 19c:	fe e0       	ldi	r31, 0x0E	; 14
 19e:	31 97       	sbiw	r30, 0x01	; 1
 1a0:	f1 f7       	brne	.-4      	; 0x19e <lcd_reset+0x66>
 1a2:	00 00       	nop
 1a4:	40 98       	cbi	0x08, 0	; 8
 1a6:	41 98       	cbi	0x08, 1	; 8
 1a8:	80 e2       	ldi	r24, 0x20	; 32
 1aa:	88 b9       	out	0x08, r24	; 8
 1ac:	42 9a       	sbi	0x08, 2	; 8
 1ae:	8f ef       	ldi	r24, 0xFF	; 255
 1b0:	97 e4       	ldi	r25, 0x47	; 71
 1b2:	01 97       	sbiw	r24, 0x01	; 1
 1b4:	f1 f7       	brne	.-4      	; 0x1b2 <lcd_reset+0x7a>
 1b6:	00 c0       	rjmp	.+0      	; 0x1b8 <lcd_reset+0x80>
 1b8:	00 00       	nop
 1ba:	42 98       	cbi	0x08, 2	; 8
 1bc:	08 95       	ret

000001be <lcd_wr_command>:
 1be:	98 b1       	in	r25, 0x08	; 8
 1c0:	9f 70       	andi	r25, 0x0F	; 15
 1c2:	98 b9       	out	0x08, r25	; 8
 1c4:	98 b1       	in	r25, 0x08	; 8
 1c6:	28 2f       	mov	r18, r24
 1c8:	20 7f       	andi	r18, 0xF0	; 240
 1ca:	92 2b       	or	r25, r18
 1cc:	98 b9       	out	0x08, r25	; 8
 1ce:	40 98       	cbi	0x08, 0	; 8
 1d0:	41 98       	cbi	0x08, 1	; 8
 1d2:	42 9a       	sbi	0x08, 2	; 8
 1d4:	ef ef       	ldi	r30, 0xFF	; 255
 1d6:	f7 e4       	ldi	r31, 0x47	; 71
 1d8:	31 97       	sbiw	r30, 0x01	; 1
 1da:	f1 f7       	brne	.-4      	; 0x1d8 <lcd_wr_command+0x1a>
 1dc:	00 c0       	rjmp	.+0      	; 0x1de <lcd_wr_command+0x20>
 1de:	00 00       	nop
 1e0:	42 98       	cbi	0x08, 2	; 8
 1e2:	98 b1       	in	r25, 0x08	; 8
 1e4:	9f 70       	andi	r25, 0x0F	; 15
 1e6:	98 b9       	out	0x08, r25	; 8
 1e8:	98 b1       	in	r25, 0x08	; 8
 1ea:	82 95       	swap	r24
 1ec:	80 7f       	andi	r24, 0xF0	; 240
 1ee:	89 2b       	or	r24, r25
 1f0:	88 b9       	out	0x08, r24	; 8
 1f2:	40 98       	cbi	0x08, 0	; 8
 1f4:	41 98       	cbi	0x08, 1	; 8
 1f6:	42 9a       	sbi	0x08, 2	; 8
 1f8:	8f ef       	ldi	r24, 0xFF	; 255
 1fa:	97 e4       	ldi	r25, 0x47	; 71
 1fc:	01 97       	sbiw	r24, 0x01	; 1
 1fe:	f1 f7       	brne	.-4      	; 0x1fc <lcd_wr_command+0x3e>
 200:	00 c0       	rjmp	.+0      	; 0x202 <lcd_wr_command+0x44>
 202:	00 00       	nop
 204:	42 98       	cbi	0x08, 2	; 8
 206:	08 95       	ret

00000208 <lcd_init>:
 208:	0e 94 95 00 	call	0x12a	; 0x12a <lcd_port_config>
 20c:	0e 94 9c 00 	call	0x138	; 0x138 <lcd_reset>
 210:	86 e6       	ldi	r24, 0x66	; 102
 212:	9e e0       	ldi	r25, 0x0E	; 14
 214:	01 97       	sbiw	r24, 0x01	; 1
 216:	f1 f7       	brne	.-4      	; 0x214 <lcd_init+0xc>
 218:	00 00       	nop
 21a:	88 e2       	ldi	r24, 0x28	; 40
 21c:	0e 94 df 00 	call	0x1be	; 0x1be <lcd_wr_command>
 220:	81 e0       	ldi	r24, 0x01	; 1
 222:	0e 94 df 00 	call	0x1be	; 0x1be <lcd_wr_command>
 226:	86 e0       	ldi	r24, 0x06	; 6
 228:	0e 94 df 00 	call	0x1be	; 0x1be <lcd_wr_command>
 22c:	8e e0       	ldi	r24, 0x0E	; 14
 22e:	0e 94 df 00 	call	0x1be	; 0x1be <lcd_wr_command>
 232:	80 e8       	ldi	r24, 0x80	; 128
 234:	0c 94 df 00 	jmp	0x1be	; 0x1be <lcd_wr_command>

00000238 <lcd_wr_char>:
 238:	98 b1       	in	r25, 0x08	; 8
 23a:	9f 70       	andi	r25, 0x0F	; 15
 23c:	98 b9       	out	0x08, r25	; 8
 23e:	98 b1       	in	r25, 0x08	; 8
 240:	28 2f       	mov	r18, r24
 242:	20 7f       	andi	r18, 0xF0	; 240
 244:	92 2b       	or	r25, r18
 246:	98 b9       	out	0x08, r25	; 8
 248:	40 9a       	sbi	0x08, 0	; 8
 24a:	41 98       	cbi	0x08, 1	; 8
 24c:	42 9a       	sbi	0x08, 2	; 8
 24e:	ef ef       	ldi	r30, 0xFF	; 255
 250:	f7 e4       	ldi	r31, 0x47	; 71
 252:	31 97       	sbiw	r30, 0x01	; 1
 254:	f1 f7       	brne	.-4      	; 0x252 <lcd_wr_char+0x1a>
 256:	00 c0       	rjmp	.+0      	; 0x258 <lcd_wr_char+0x20>
 258:	00 00       	nop
 25a:	42 98       	cbi	0x08, 2	; 8
 25c:	98 b1       	in	r25, 0x08	; 8
 25e:	9f 70       	andi	r25, 0x0F	; 15
 260:	98 b9       	out	0x08, r25	; 8
 262:	98 b1       	in	r25, 0x08	; 8
 264:	82 95       	swap	r24
 266:	80 7f       	andi	r24, 0xF0	; 240
 268:	89 2b       	or	r24, r25
 26a:	88 b9       	out	0x08, r24	; 8
 26c:	40 9a       	sbi	0x08, 0	; 8
 26e:	41 98       	cbi	0x08, 1	; 8
 270:	42 9a       	sbi	0x08, 2	; 8
 272:	8f ef       	ldi	r24, 0xFF	; 255
 274:	97 e4       	ldi	r25, 0x47	; 71
 276:	01 97       	sbiw	r24, 0x01	; 1
 278:	f1 f7       	brne	.-4      	; 0x276 <lcd_wr_char+0x3e>
 27a:	00 c0       	rjmp	.+0      	; 0x27c <lcd_wr_char+0x44>
 27c:	00 00       	nop
 27e:	42 98       	cbi	0x08, 2	; 8
 280:	08 95       	ret

00000282 <lcd_cursor>:
 282:	98 2f       	mov	r25, r24
 284:	86 2f       	mov	r24, r22
 286:	92 30       	cpi	r25, 0x02	; 2
 288:	59 f0       	breq	.+22     	; 0x2a0 <lcd_cursor+0x1e>
 28a:	18 f4       	brcc	.+6      	; 0x292 <lcd_cursor+0x10>
 28c:	91 30       	cpi	r25, 0x01	; 1
 28e:	31 f0       	breq	.+12     	; 0x29c <lcd_cursor+0x1a>
 290:	08 95       	ret
 292:	93 30       	cpi	r25, 0x03	; 3
 294:	39 f0       	breq	.+14     	; 0x2a4 <lcd_cursor+0x22>
 296:	94 30       	cpi	r25, 0x04	; 4
 298:	39 f0       	breq	.+14     	; 0x2a8 <lcd_cursor+0x26>
 29a:	08 95       	ret
 29c:	81 58       	subi	r24, 0x81	; 129
 29e:	05 c0       	rjmp	.+10     	; 0x2aa <lcd_cursor+0x28>
 2a0:	81 54       	subi	r24, 0x41	; 65
 2a2:	03 c0       	rjmp	.+6      	; 0x2aa <lcd_cursor+0x28>
 2a4:	8d 56       	subi	r24, 0x6D	; 109
 2a6:	01 c0       	rjmp	.+2      	; 0x2aa <lcd_cursor+0x28>
 2a8:	8d 52       	subi	r24, 0x2D	; 45
 2aa:	0c 94 df 00 	jmp	0x1be	; 0x1be <lcd_wr_command>

000002ae <lcd_string>:
 2ae:	cf 93       	push	r28
 2b0:	df 93       	push	r29
 2b2:	ec 01       	movw	r28, r24
 2b4:	89 91       	ld	r24, Y+
 2b6:	88 23       	and	r24, r24
 2b8:	19 f0       	breq	.+6      	; 0x2c0 <lcd_string+0x12>
 2ba:	0e 94 1c 01 	call	0x238	; 0x238 <lcd_wr_char>
 2be:	fa cf       	rjmp	.-12     	; 0x2b4 <lcd_string+0x6>
 2c0:	df 91       	pop	r29
 2c2:	cf 91       	pop	r28
 2c4:	08 95       	ret

000002c6 <lcd_clear>:
 2c6:	81 e0       	ldi	r24, 0x01	; 1
 2c8:	0c 94 df 00 	jmp	0x1be	; 0x1be <lcd_wr_command>

000002cc <lcd_line1>:
 2cc:	80 e8       	ldi	r24, 0x80	; 128
 2ce:	0c 94 df 00 	jmp	0x1be	; 0x1be <lcd_wr_command>

000002d2 <lcd_print>:
 2d2:	0f 93       	push	r16
 2d4:	1f 93       	push	r17
 2d6:	cf 93       	push	r28
 2d8:	df 93       	push	r29
 2da:	8a 01       	movw	r16, r20
 2dc:	e9 01       	movw	r28, r18
 2de:	88 23       	and	r24, r24
 2e0:	11 f0       	breq	.+4      	; 0x2e6 <lcd_print+0x14>
 2e2:	61 11       	cpse	r22, r1
 2e4:	03 c0       	rjmp	.+6      	; 0x2ec <lcd_print+0x1a>
 2e6:	0e 94 66 01 	call	0x2cc	; 0x2cc <lcd_line1>
 2ea:	02 c0       	rjmp	.+4      	; 0x2f0 <lcd_print+0x1e>
 2ec:	0e 94 41 01 	call	0x282	; 0x282 <lcd_cursor>
 2f0:	c5 30       	cpi	r28, 0x05	; 5
 2f2:	d1 05       	cpc	r29, r1
 2f4:	09 f0       	breq	.+2      	; 0x2f8 <lcd_print+0x26>
 2f6:	61 c0       	rjmp	.+194    	; 0x3ba <lcd_print+0xe8>
 2f8:	c8 01       	movw	r24, r16
 2fa:	60 e1       	ldi	r22, 0x10	; 16
 2fc:	77 e2       	ldi	r23, 0x27	; 39
 2fe:	0e 94 89 02 	call	0x512	; 0x512 <__udivmodhi4>
 302:	cb 01       	movw	r24, r22
 304:	c0 96       	adiw	r24, 0x30	; 48
 306:	90 93 2b 02 	sts	0x022B, r25	; 0x80022b <__data_end+0x1>
 30a:	80 93 2a 02 	sts	0x022A, r24	; 0x80022a <__data_end>
 30e:	0e 94 1c 01 	call	0x238	; 0x238 <lcd_wr_char>
 312:	c8 01       	movw	r24, r16
 314:	68 ee       	ldi	r22, 0xE8	; 232
 316:	73 e0       	ldi	r23, 0x03	; 3
 318:	0e 94 89 02 	call	0x512	; 0x512 <__udivmodhi4>
 31c:	cb 01       	movw	r24, r22
 31e:	70 93 2f 02 	sts	0x022F, r23	; 0x80022f <lcd_char_temp+0x1>
 322:	60 93 2e 02 	sts	0x022E, r22	; 0x80022e <lcd_char_temp>
 326:	6a e0       	ldi	r22, 0x0A	; 10
 328:	70 e0       	ldi	r23, 0x00	; 0
 32a:	0e 94 89 02 	call	0x512	; 0x512 <__udivmodhi4>
 32e:	c0 96       	adiw	r24, 0x30	; 48
 330:	90 93 35 02 	sts	0x0235, r25	; 0x800235 <thousand+0x1>
 334:	80 93 34 02 	sts	0x0234, r24	; 0x800234 <thousand>
 338:	0e 94 1c 01 	call	0x238	; 0x238 <lcd_wr_char>
 33c:	c8 01       	movw	r24, r16
 33e:	64 e6       	ldi	r22, 0x64	; 100
 340:	70 e0       	ldi	r23, 0x00	; 0
 342:	0e 94 89 02 	call	0x512	; 0x512 <__udivmodhi4>
 346:	cb 01       	movw	r24, r22
 348:	70 93 2f 02 	sts	0x022F, r23	; 0x80022f <lcd_char_temp+0x1>
 34c:	60 93 2e 02 	sts	0x022E, r22	; 0x80022e <lcd_char_temp>
 350:	6a e0       	ldi	r22, 0x0A	; 10
 352:	70 e0       	ldi	r23, 0x00	; 0
 354:	0e 94 89 02 	call	0x512	; 0x512 <__udivmodhi4>
 358:	c0 96       	adiw	r24, 0x30	; 48
 35a:	90 93 31 02 	sts	0x0231, r25	; 0x800231 <hundred+0x1>
 35e:	80 93 30 02 	sts	0x0230, r24	; 0x800230 <hundred>
 362:	0e 94 1c 01 	call	0x238	; 0x238 <lcd_wr_char>
 366:	2a e0       	ldi	r18, 0x0A	; 10
 368:	30 e0       	ldi	r19, 0x00	; 0
 36a:	c8 01       	movw	r24, r16
 36c:	b9 01       	movw	r22, r18
 36e:	0e 94 89 02 	call	0x512	; 0x512 <__udivmodhi4>
 372:	cb 01       	movw	r24, r22
 374:	70 93 2f 02 	sts	0x022F, r23	; 0x80022f <lcd_char_temp+0x1>
 378:	60 93 2e 02 	sts	0x022E, r22	; 0x80022e <lcd_char_temp>
 37c:	b9 01       	movw	r22, r18
 37e:	0e 94 89 02 	call	0x512	; 0x512 <__udivmodhi4>
 382:	c0 96       	adiw	r24, 0x30	; 48
 384:	90 93 2d 02 	sts	0x022D, r25	; 0x80022d <tens+0x1>
 388:	80 93 2c 02 	sts	0x022C, r24	; 0x80022c <tens>
 38c:	0e 94 1c 01 	call	0x238	; 0x238 <lcd_wr_char>
 390:	c8 01       	movw	r24, r16
 392:	6a e0       	ldi	r22, 0x0A	; 10
 394:	70 e0       	ldi	r23, 0x00	; 0
 396:	0e 94 89 02 	call	0x512	; 0x512 <__udivmodhi4>
 39a:	c0 96       	adiw	r24, 0x30	; 48
 39c:	90 93 33 02 	sts	0x0233, r25	; 0x800233 <unit+0x1>
 3a0:	80 93 32 02 	sts	0x0232, r24	; 0x800232 <unit>
 3a4:	0e 94 1c 01 	call	0x238	; 0x238 <lcd_wr_char>
 3a8:	26 97       	sbiw	r28, 0x06	; 6
 3aa:	b4 f0       	brlt	.+44     	; 0x3d8 <lcd_print+0x106>
 3ac:	85 e6       	ldi	r24, 0x65	; 101
 3ae:	df 91       	pop	r29
 3b0:	cf 91       	pop	r28
 3b2:	1f 91       	pop	r17
 3b4:	0f 91       	pop	r16
 3b6:	0c 94 1c 01 	jmp	0x238	; 0x238 <lcd_wr_char>
 3ba:	c4 30       	cpi	r28, 0x04	; 4
 3bc:	d1 05       	cpc	r29, r1
 3be:	09 f4       	brne	.+2      	; 0x3c2 <lcd_print+0xf0>
 3c0:	a8 cf       	rjmp	.-176    	; 0x312 <lcd_print+0x40>
 3c2:	c3 30       	cpi	r28, 0x03	; 3
 3c4:	d1 05       	cpc	r29, r1
 3c6:	09 f4       	brne	.+2      	; 0x3ca <lcd_print+0xf8>
 3c8:	b9 cf       	rjmp	.-142    	; 0x33c <lcd_print+0x6a>
 3ca:	c2 30       	cpi	r28, 0x02	; 2
 3cc:	d1 05       	cpc	r29, r1
 3ce:	59 f2       	breq	.-106    	; 0x366 <lcd_print+0x94>
 3d0:	c1 30       	cpi	r28, 0x01	; 1
 3d2:	d1 05       	cpc	r29, r1
 3d4:	49 f7       	brne	.-46     	; 0x3a8 <lcd_print+0xd6>
 3d6:	dc cf       	rjmp	.-72     	; 0x390 <lcd_print+0xbe>
 3d8:	df 91       	pop	r29
 3da:	cf 91       	pop	r28
 3dc:	1f 91       	pop	r17
 3de:	0f 91       	pop	r16
 3e0:	08 95       	ret

000003e2 <sm_port_config>:
 3e2:	85 98       	cbi	0x10, 5	; 16
 3e4:	08 95       	ret

000003e6 <adc_init>:
 3e6:	10 92 7c 00 	sts	0x007C, r1	; 0x80007c <__TEXT_REGION_LENGTH__+0x70007c>
 3ea:	86 e8       	ldi	r24, 0x86	; 134
 3ec:	80 93 7a 00 	sts	0x007A, r24	; 0x80007a <__TEXT_REGION_LENGTH__+0x70007a>
 3f0:	87 ef       	ldi	r24, 0xF7	; 247
 3f2:	80 93 7b 00 	sts	0x007B, r24	; 0x80007b <__TEXT_REGION_LENGTH__+0x70007b>
 3f6:	80 e8       	ldi	r24, 0x80	; 128
 3f8:	80 bf       	out	0x30, r24	; 48
 3fa:	8f ef       	ldi	r24, 0xFF	; 255
 3fc:	80 93 7e 00 	sts	0x007E, r24	; 0x80007e <__TEXT_REGION_LENGTH__+0x70007e>
 400:	80 93 7d 00 	sts	0x007D, r24	; 0x80007d <__TEXT_REGION_LENGTH__+0x70007d>
 404:	08 95       	ret

00000406 <adc_read>:
 406:	88 30       	cpi	r24, 0x08	; 8
 408:	28 f0       	brcs	.+10     	; 0x414 <adc_read+0xe>
 40a:	90 91 7b 00 	lds	r25, 0x007B	; 0x80007b <__TEXT_REGION_LENGTH__+0x70007b>
 40e:	98 60       	ori	r25, 0x08	; 8
 410:	90 93 7b 00 	sts	0x007B, r25	; 0x80007b <__TEXT_REGION_LENGTH__+0x70007b>
 414:	87 70       	andi	r24, 0x07	; 7
 416:	80 93 7c 00 	sts	0x007C, r24	; 0x80007c <__TEXT_REGION_LENGTH__+0x70007c>
 41a:	80 91 7a 00 	lds	r24, 0x007A	; 0x80007a <__TEXT_REGION_LENGTH__+0x70007a>
 41e:	80 64       	ori	r24, 0x40	; 64
 420:	80 93 7a 00 	sts	0x007A, r24	; 0x80007a <__TEXT_REGION_LENGTH__+0x70007a>
 424:	80 91 7a 00 	lds	r24, 0x007A	; 0x80007a <__TEXT_REGION_LENGTH__+0x70007a>
 428:	84 ff       	sbrs	r24, 4
 42a:	fc cf       	rjmp	.-8      	; 0x424 <adc_read+0x1e>
 42c:	80 91 78 00 	lds	r24, 0x0078	; 0x800078 <__TEXT_REGION_LENGTH__+0x700078>
 430:	20 91 79 00 	lds	r18, 0x0079	; 0x800079 <__TEXT_REGION_LENGTH__+0x700079>
 434:	90 91 7a 00 	lds	r25, 0x007A	; 0x80007a <__TEXT_REGION_LENGTH__+0x70007a>
 438:	90 61       	ori	r25, 0x10	; 16
 43a:	90 93 7a 00 	sts	0x007A, r25	; 0x80007a <__TEXT_REGION_LENGTH__+0x70007a>
 43e:	90 91 7b 00 	lds	r25, 0x007B	; 0x80007b <__TEXT_REGION_LENGTH__+0x70007b>
 442:	97 6f       	ori	r25, 0xF7	; 247
 444:	90 93 7b 00 	sts	0x007B, r25	; 0x80007b <__TEXT_REGION_LENGTH__+0x70007b>
 448:	90 e0       	ldi	r25, 0x00	; 0
 44a:	92 2b       	or	r25, r18
 44c:	08 95       	ret

0000044e <update_sm_sensor>:
 44e:	85 e0       	ldi	r24, 0x05	; 5
 450:	0c 94 03 02 	jmp	0x406	; 0x406 <adc_read>

00000454 <moistureReading>:
 454:	0e 94 27 02 	call	0x44e	; 0x44e <update_sm_sensor>
 458:	a0 e0       	ldi	r26, 0x00	; 0
 45a:	b0 e0       	ldi	r27, 0x00	; 0
 45c:	9c 01       	movw	r18, r24
 45e:	ad 01       	movw	r20, r26
 460:	2c 52       	subi	r18, 0x2C	; 44
 462:	31 40       	sbci	r19, 0x01	; 1
 464:	41 09       	sbc	r20, r1
 466:	51 09       	sbc	r21, r1
 468:	ac e9       	ldi	r26, 0x9C	; 156
 46a:	bf ef       	ldi	r27, 0xFF	; 255
 46c:	0e 94 ca 02 	call	0x594	; 0x594 <__mulohisi3>
 470:	23 ed       	ldi	r18, 0xD3	; 211
 472:	32 e0       	ldi	r19, 0x02	; 2
 474:	40 e0       	ldi	r20, 0x00	; 0
 476:	50 e0       	ldi	r21, 0x00	; 0
 478:	0e 94 9d 02 	call	0x53a	; 0x53a <__divmodsi4>
 47c:	84 e6       	ldi	r24, 0x64	; 100
 47e:	82 0f       	add	r24, r18
 480:	08 95       	ret

00000482 <port_init>:
 482:	0e 94 04 01 	call	0x208	; 0x208 <lcd_init>
 486:	0c 94 f1 01 	jmp	0x3e2	; 0x3e2 <sm_port_config>

0000048a <init_devices>:
 48a:	f8 94       	cli
 48c:	0e 94 41 02 	call	0x482	; 0x482 <port_init>
 490:	78 94       	sei
 492:	08 95       	ret

00000494 <main>:
 494:	0e 94 45 02 	call	0x48a	; 0x48a <init_devices>
 498:	0e 94 f3 01 	call	0x3e6	; 0x3e6 <adc_init>
 49c:	82 e8       	ldi	r24, 0x82	; 130
 49e:	0e 94 df 00 	call	0x1be	; 0x1be <lcd_wr_command>
 4a2:	80 e0       	ldi	r24, 0x00	; 0
 4a4:	92 e0       	ldi	r25, 0x02	; 2
 4a6:	0e 94 57 01 	call	0x2ae	; 0x2ae <lcd_string>
 4aa:	83 ec       	ldi	r24, 0xC3	; 195
 4ac:	0e 94 df 00 	call	0x1be	; 0x1be <lcd_wr_command>
 4b0:	8e e0       	ldi	r24, 0x0E	; 14
 4b2:	92 e0       	ldi	r25, 0x02	; 2
 4b4:	0e 94 57 01 	call	0x2ae	; 0x2ae <lcd_string>
 4b8:	2f ef       	ldi	r18, 0xFF	; 255
 4ba:	8f ef       	ldi	r24, 0xFF	; 255
 4bc:	99 e5       	ldi	r25, 0x59	; 89
 4be:	21 50       	subi	r18, 0x01	; 1
 4c0:	80 40       	sbci	r24, 0x00	; 0
 4c2:	90 40       	sbci	r25, 0x00	; 0
 4c4:	e1 f7       	brne	.-8      	; 0x4be <main+0x2a>
 4c6:	00 c0       	rjmp	.+0      	; 0x4c8 <main+0x34>
 4c8:	00 00       	nop
 4ca:	0e 94 63 01 	call	0x2c6	; 0x2c6 <lcd_clear>
 4ce:	81 e8       	ldi	r24, 0x81	; 129
 4d0:	0e 94 df 00 	call	0x1be	; 0x1be <lcd_wr_command>
 4d4:	89 e1       	ldi	r24, 0x19	; 25
 4d6:	92 e0       	ldi	r25, 0x02	; 2
 4d8:	0e 94 57 01 	call	0x2ae	; 0x2ae <lcd_string>
 4dc:	89 ec       	ldi	r24, 0xC9	; 201
 4de:	0e 94 df 00 	call	0x1be	; 0x1be <lcd_wr_command>
 4e2:	87 e2       	ldi	r24, 0x27	; 39
 4e4:	92 e0       	ldi	r25, 0x02	; 2
 4e6:	0e 94 57 01 	call	0x2ae	; 0x2ae <lcd_string>
 4ea:	0e 94 2a 02 	call	0x454	; 0x454 <moistureReading>
 4ee:	48 2f       	mov	r20, r24
 4f0:	50 e0       	ldi	r21, 0x00	; 0
 4f2:	23 e0       	ldi	r18, 0x03	; 3
 4f4:	30 e0       	ldi	r19, 0x00	; 0
 4f6:	67 e0       	ldi	r22, 0x07	; 7
 4f8:	82 e0       	ldi	r24, 0x02	; 2
 4fa:	0e 94 69 01 	call	0x2d2	; 0x2d2 <lcd_print>
 4fe:	2f ef       	ldi	r18, 0xFF	; 255
 500:	8f e7       	ldi	r24, 0x7F	; 127
 502:	94 e0       	ldi	r25, 0x04	; 4
 504:	21 50       	subi	r18, 0x01	; 1
 506:	80 40       	sbci	r24, 0x00	; 0
 508:	90 40       	sbci	r25, 0x00	; 0
 50a:	e1 f7       	brne	.-8      	; 0x504 <main+0x70>
 50c:	00 c0       	rjmp	.+0      	; 0x50e <main+0x7a>
 50e:	00 00       	nop
 510:	ec cf       	rjmp	.-40     	; 0x4ea <main+0x56>

00000512 <__udivmodhi4>:
 512:	aa 1b       	sub	r26, r26
 514:	bb 1b       	sub	r27, r27
 516:	51 e1       	ldi	r21, 0x11	; 17
 518:	07 c0       	rjmp	.+14     	; 0x528 <__udivmodhi4_ep>

0000051a <__udivmodhi4_loop>:
 51a:	aa 1f       	adc	r26, r26
 51c:	bb 1f       	adc	r27, r27
 51e:	a6 17       	cp	r26, r22
 520:	b7 07       	cpc	r27, r23
 522:	10 f0       	brcs	.+4      	; 0x528 <__udivmodhi4_ep>
 524:	a6 1b       	sub	r26, r22
 526:	b7 0b       	sbc	r27, r23

00000528 <__udivmodhi4_ep>:
 528:	88 1f       	adc	r24, r24
 52a:	99 1f       	adc	r25, r25
 52c:	5a 95       	dec	r21
 52e:	a9 f7       	brne	.-22     	; 0x51a <__udivmodhi4_loop>
 530:	80 95       	com	r24
 532:	90 95       	com	r25
 534:	bc 01       	movw	r22, r24
 536:	cd 01       	movw	r24, r26
 538:	08 95       	ret

0000053a <__divmodsi4>:
 53a:	05 2e       	mov	r0, r21
 53c:	97 fb       	bst	r25, 7
 53e:	1e f4       	brtc	.+6      	; 0x546 <__divmodsi4+0xc>
 540:	00 94       	com	r0
 542:	0e 94 b4 02 	call	0x568	; 0x568 <__negsi2>
 546:	57 fd       	sbrc	r21, 7
 548:	07 d0       	rcall	.+14     	; 0x558 <__divmodsi4_neg2>
 54a:	0e 94 cf 02 	call	0x59e	; 0x59e <__udivmodsi4>
 54e:	07 fc       	sbrc	r0, 7
 550:	03 d0       	rcall	.+6      	; 0x558 <__divmodsi4_neg2>
 552:	4e f4       	brtc	.+18     	; 0x566 <__divmodsi4_exit>
 554:	0c 94 b4 02 	jmp	0x568	; 0x568 <__negsi2>

00000558 <__divmodsi4_neg2>:
 558:	50 95       	com	r21
 55a:	40 95       	com	r20
 55c:	30 95       	com	r19
 55e:	21 95       	neg	r18
 560:	3f 4f       	sbci	r19, 0xFF	; 255
 562:	4f 4f       	sbci	r20, 0xFF	; 255
 564:	5f 4f       	sbci	r21, 0xFF	; 255

00000566 <__divmodsi4_exit>:
 566:	08 95       	ret

00000568 <__negsi2>:
 568:	90 95       	com	r25
 56a:	80 95       	com	r24
 56c:	70 95       	com	r23
 56e:	61 95       	neg	r22
 570:	7f 4f       	sbci	r23, 0xFF	; 255
 572:	8f 4f       	sbci	r24, 0xFF	; 255
 574:	9f 4f       	sbci	r25, 0xFF	; 255
 576:	08 95       	ret

00000578 <__muluhisi3>:
 578:	0e 94 f1 02 	call	0x5e2	; 0x5e2 <__umulhisi3>
 57c:	a5 9f       	mul	r26, r21
 57e:	90 0d       	add	r25, r0
 580:	b4 9f       	mul	r27, r20
 582:	90 0d       	add	r25, r0
 584:	a4 9f       	mul	r26, r20
 586:	80 0d       	add	r24, r0
 588:	91 1d       	adc	r25, r1
 58a:	11 24       	eor	r1, r1
 58c:	08 95       	ret

0000058e <__mulshisi3>:
 58e:	b7 ff       	sbrs	r27, 7
 590:	0c 94 bc 02 	jmp	0x578	; 0x578 <__muluhisi3>

00000594 <__mulohisi3>:
 594:	0e 94 bc 02 	call	0x578	; 0x578 <__muluhisi3>
 598:	82 1b       	sub	r24, r18
 59a:	93 0b       	sbc	r25, r19
 59c:	08 95       	ret

0000059e <__udivmodsi4>:
 59e:	a1 e2       	ldi	r26, 0x21	; 33
 5a0:	1a 2e       	mov	r1, r26
 5a2:	aa 1b       	sub	r26, r26
 5a4:	bb 1b       	sub	r27, r27
 5a6:	fd 01       	movw	r30, r26
 5a8:	0d c0       	rjmp	.+26     	; 0x5c4 <__udivmodsi4_ep>

000005aa <__udivmodsi4_loop>:
 5aa:	aa 1f       	adc	r26, r26
 5ac:	bb 1f       	adc	r27, r27
 5ae:	ee 1f       	adc	r30, r30
 5b0:	ff 1f       	adc	r31, r31
 5b2:	a2 17       	cp	r26, r18
 5b4:	b3 07       	cpc	r27, r19
 5b6:	e4 07       	cpc	r30, r20
 5b8:	f5 07       	cpc	r31, r21
 5ba:	20 f0       	brcs	.+8      	; 0x5c4 <__udivmodsi4_ep>
 5bc:	a2 1b       	sub	r26, r18
 5be:	b3 0b       	sbc	r27, r19
 5c0:	e4 0b       	sbc	r30, r20
 5c2:	f5 0b       	sbc	r31, r21

000005c4 <__udivmodsi4_ep>:
 5c4:	66 1f       	adc	r22, r22
 5c6:	77 1f       	adc	r23, r23
 5c8:	88 1f       	adc	r24, r24
 5ca:	99 1f       	adc	r25, r25
 5cc:	1a 94       	dec	r1
 5ce:	69 f7       	brne	.-38     	; 0x5aa <__udivmodsi4_loop>
 5d0:	60 95       	com	r22
 5d2:	70 95       	com	r23
 5d4:	80 95       	com	r24
 5d6:	90 95       	com	r25
 5d8:	9b 01       	movw	r18, r22
 5da:	ac 01       	movw	r20, r24
 5dc:	bd 01       	movw	r22, r26
 5de:	cf 01       	movw	r24, r30
 5e0:	08 95       	ret

000005e2 <__umulhisi3>:
 5e2:	a2 9f       	mul	r26, r18
 5e4:	b0 01       	movw	r22, r0
 5e6:	b3 9f       	mul	r27, r19
 5e8:	c0 01       	movw	r24, r0
 5ea:	a3 9f       	mul	r26, r19
 5ec:	70 0d       	add	r23, r0
 5ee:	81 1d       	adc	r24, r1
 5f0:	11 24       	eor	r1, r1
 5f2:	91 1d       	adc	r25, r1
 5f4:	b2 9f       	mul	r27, r18
 5f6:	70 0d       	add	r23, r0
 5f8:	81 1d       	adc	r24, r1
 5fa:	11 24       	eor	r1, r1
 5fc:	91 1d       	adc	r25, r1
 5fe:	08 95       	ret

00000600 <_exit>:
 600:	f8 94       	cli

00000602 <__stop_program>:
 602:	ff cf       	rjmp	.-2      	; 0x602 <__stop_program>
